; ModuleID = '57/828.c'
source_filename = "57/828.c"
target datalayout = "e-m:e-p270:32:32-p271:32:32-p272:64:64-i64:64-f80:128-n8:16:32:64-S128"
target triple = "x86_64-pc-linux-gnu"

@.str = private unnamed_addr constant [3 x i8] c"%d\00", align 1
@.str.1 = private unnamed_addr constant [3 x i8] c"%s\00", align 1
@.str.2 = private unnamed_addr constant [4 x i8] c"%s\0A\00", align 1

; Function Attrs: noinline nounwind uwtable
define dso_local i32 @main() #0 {
  %1 = alloca i32, align 4
  %2 = alloca i32, align 4
  %3 = alloca i32, align 4
  %4 = alloca i32, align 4
  %5 = alloca i32, align 4
  %6 = alloca [33 x i8], align 16
  store i32 0, i32* %1, align 4
  %7 = call i32 (i8*, ...) @__isoc99_scanf(i8* getelementptr inbounds ([3 x i8], [3 x i8]* @.str, i64 0, i64 0), i32* %2)
  store i32 0, i32* %3, align 4
  br label %8

8:                                                ; preds = %101, %0
  %9 = load i32, i32* %3, align 4
  %10 = load i32, i32* %2, align 4
  %11 = icmp slt i32 %9, %10
  br i1 %11, label %12, label %104

12:                                               ; preds = %8
  %13 = getelementptr inbounds [33 x i8], [33 x i8]* %6, i64 0, i64 0
  %14 = call i32 (i8*, ...) @__isoc99_scanf(i8* getelementptr inbounds ([3 x i8], [3 x i8]* @.str.1, i64 0, i64 0), i8* %13)
  %15 = getelementptr inbounds [33 x i8], [33 x i8]* %6, i64 0, i64 0
  %16 = call i64 @strlen(i8* %15) #3
  %17 = trunc i64 %16 to i32
  store i32 %17, i32* %5, align 4
  %18 = load i32, i32* %5, align 4
  %19 = icmp sgt i32 %18, 3
  br i1 %19, label %20, label %92

20:                                               ; preds = %12
  %21 = load i32, i32* %5, align 4
  %22 = sub nsw i32 %21, 1
  %23 = sext i32 %22 to i64
  %24 = getelementptr inbounds [33 x i8], [33 x i8]* %6, i64 0, i64 %23
  %25 = load i8, i8* %24, align 1
  %26 = sext i8 %25 to i32
  %27 = icmp eq i32 %26, 114
  br i1 %27, label %28, label %41

28:                                               ; preds = %20
  %29 = load i32, i32* %5, align 4
  %30 = sub nsw i32 %29, 2
  %31 = sext i32 %30 to i64
  %32 = getelementptr inbounds [33 x i8], [33 x i8]* %6, i64 0, i64 %31
  %33 = load i8, i8* %32, align 1
  %34 = sext i8 %33 to i32
  %35 = icmp eq i32 %34, 101
  br i1 %35, label %36, label %41

36:                                               ; preds = %28
  %37 = load i32, i32* %5, align 4
  %38 = sub nsw i32 %37, 2
  %39 = sext i32 %38 to i64
  %40 = getelementptr inbounds [33 x i8], [33 x i8]* %6, i64 0, i64 %39
  store i8 0, i8* %40, align 1
  br label %41

41:                                               ; preds = %36, %28, %20
  %42 = load i32, i32* %5, align 4
  %43 = sub nsw i32 %42, 1
  %44 = sext i32 %43 to i64
  %45 = getelementptr inbounds [33 x i8], [33 x i8]* %6, i64 0, i64 %44
  %46 = load i8, i8* %45, align 1
  %47 = sext i8 %46 to i32
  %48 = icmp eq i32 %47, 121
  br i1 %48, label %49, label %62

49:                                               ; preds = %41
  %50 = load i32, i32* %5, align 4
  %51 = sub nsw i32 %50, 2
  %52 = sext i32 %51 to i64
  %53 = getelementptr inbounds [33 x i8], [33 x i8]* %6, i64 0, i64 %52
  %54 = load i8, i8* %53, align 1
  %55 = sext i8 %54 to i32
  %56 = icmp eq i32 %55, 108
  br i1 %56, label %57, label %62

57:                                               ; preds = %49
  %58 = load i32, i32* %5, align 4
  %59 = sub nsw i32 %58, 2
  %60 = sext i32 %59 to i64
  %61 = getelementptr inbounds [33 x i8], [33 x i8]* %6, i64 0, i64 %60
  store i8 0, i8* %61, align 1
  br label %62

62:                                               ; preds = %57, %49, %41
  %63 = load i32, i32* %5, align 4
  %64 = sub nsw i32 %63, 1
  %65 = sext i32 %64 to i64
  %66 = getelementptr inbounds [33 x i8], [33 x i8]* %6, i64 0, i64 %65
  %67 = load i8, i8* %66, align 1
  %68 = sext i8 %67 to i32
  %69 = icmp eq i32 %68, 103
  br i1 %69, label %70, label %91

70:                                               ; preds = %62
  %71 = load i32, i32* %5, align 4
  %72 = sub nsw i32 %71, 2
  %73 = sext i32 %72 to i64
  %74 = getelementptr inbounds [33 x i8], [33 x i8]* %6, i64 0, i64 %73
  %75 = load i8, i8* %74, align 1
  %76 = sext i8 %75 to i32
  %77 = icmp eq i32 %76, 110
  br i1 %77, label %78, label %91

78:                                               ; preds = %70
  %79 = load i32, i32* %5, align 4
  %80 = sub nsw i32 %79, 3
  %81 = sext i32 %80 to i64
  %82 = getelementptr inbounds [33 x i8], [33 x i8]* %6, i64 0, i64 %81
  %83 = load i8, i8* %82, align 1
  %84 = sext i8 %83 to i32
  %85 = icmp eq i32 %84, 105
  br i1 %85, label %86, label %91

86:                                               ; preds = %78
  %87 = load i32, i32* %5, align 4
  %88 = sub nsw i32 %87, 3
  %89 = sext i32 %88 to i64
  %90 = getelementptr inbounds [33 x i8], [33 x i8]* %6, i64 0, i64 %89
  store i8 0, i8* %90, align 1
  br label %91

91:                                               ; preds = %86, %78, %70, %62
  br label %92

92:                                               ; preds = %91, %12
  %93 = getelementptr inbounds [33 x i8], [33 x i8]* %6, i64 0, i64 0
  %94 = call i32 (i8*, ...) @printf(i8* getelementptr inbounds ([4 x i8], [4 x i8]* @.str.2, i64 0, i64 0), i8* %93)
  %95 = load i32, i32* %5, align 4
  %96 = icmp sle i32 %95, 3
  br i1 %96, label %97, label %100

97:                                               ; preds = %92
  %98 = getelementptr inbounds [33 x i8], [33 x i8]* %6, i64 0, i64 0
  %99 = call i32 (i8*, ...) @printf(i8* getelementptr inbounds ([4 x i8], [4 x i8]* @.str.2, i64 0, i64 0), i8* %98)
  br label %100

100:                                              ; preds = %97, %92
  br label %101

101:                                              ; preds = %100
  %102 = load i32, i32* %3, align 4
  %103 = add nsw i32 %102, 1
  store i32 %103, i32* %3, align 4
  br label %8

104:                                              ; preds = %8
  ret i32 0
}

declare dso_local i32 @__isoc99_scanf(i8*, ...) #1

; Function Attrs: nounwind readonly
declare dso_local i64 @strlen(i8*) #2

declare dso_local i32 @printf(i8*, ...) #1


!llvm.module.flags = !{!0}
!llvm.ident = !{!1}

!0 = !{i32 1, !"wchar_size", i32 4}
!1 = !{!"clang version 10.0.0-4ubuntu1 "}
